; ModuleID = '45/252.c'
source_filename = "45/252.c"
target datalayout = "e-m:e-p270:32:32-p271:32:32-p272:64:64-i64:64-f80:128-n8:16:32:64-S128"
target triple = "x86_64-pc-linux-gnu"

@.str = private unnamed_addr constant [5 x i8] c"%s%s\00", align 1
@.str.1 = private unnamed_addr constant [3 x i8] c"%d\00", align 1

; Function Attrs: noinline nounwind uwtable
define dso_local void @main() #0 {
  %1 = alloca [50 x i8], align 16
  %2 = alloca [50 x i8], align 16
  %3 = alloca i32, align 4
  %4 = alloca i32, align 4
  %5 = alloca i32, align 4
  %6 = alloca i32, align 4
  store i32 0, i32* %4, align 4
  %7 = getelementptr inbounds [50 x i8], [50 x i8]* %1, i64 0, i64 0
  %8 = getelementptr inbounds [50 x i8], [50 x i8]* %2, i64 0, i64 0
  %9 = call i32 (i8*, ...) @__isoc99_scanf(i8* getelementptr inbounds ([5 x i8], [5 x i8]* @.str, i64 0, i64 0), i8* %7, i8* %8)
  %10 = getelementptr inbounds [50 x i8], [50 x i8]* %1, i64 0, i64 0
  %11 = call i64 @strlen(i8* %10) #3
  %12 = trunc i64 %11 to i32
  store i32 %12, i32* %5, align 4
  store i32 0, i32* %3, align 4
  br label %13

13:                                               ; preds = %41, %0
  %14 = load i32, i32* %3, align 4
  %15 = icmp slt i32 %14, 50
  br i1 %15, label %16, label %44

16:                                               ; preds = %13
  %17 = load i32, i32* %3, align 4
  %18 = sext i32 %17 to i64
  %19 = getelementptr inbounds [50 x i8], [50 x i8]* %2, i64 0, i64 %18
  %20 = load i8, i8* %19, align 1
  %21 = sext i8 %20 to i32
  %22 = load i32, i32* %4, align 4
  %23 = sext i32 %22 to i64
  %24 = getelementptr inbounds [50 x i8], [50 x i8]* %1, i64 0, i64 %23
  %25 = load i8, i8* %24, align 1
  %26 = sext i8 %25 to i32
  %27 = icmp eq i32 %21, %26
  br i1 %27, label %28, label %31

28:                                               ; preds = %16
  %29 = load i32, i32* %4, align 4
  %30 = add nsw i32 %29, 1
  store i32 %30, i32* %4, align 4
  br label %31

31:                                               ; preds = %28, %16
  %32 = load i32, i32* %4, align 4
  %33 = load i32, i32* %5, align 4
  %34 = sub nsw i32 %33, 1
  %35 = icmp sgt i32 %32, %34
  br i1 %35, label %36, label %40

36:                                               ; preds = %31
  %37 = load i32, i32* %4, align 4
  %38 = icmp ne i32 %37, 0
  br i1 %38, label %39, label %40

39:                                               ; preds = %36
  br label %44

40:                                               ; preds = %36, %31
  br label %41

41:                                               ; preds = %40
  %42 = load i32, i32* %3, align 4
  %43 = add nsw i32 %42, 1
  store i32 %43, i32* %3, align 4
  br label %13

44:                                               ; preds = %39, %13
  %45 = load i32, i32* %3, align 4
  %46 = add nsw i32 %45, 1
  %47 = load i32, i32* %5, align 4
  %48 = sub nsw i32 %46, %47
  %49 = call i32 (i8*, ...) @printf(i8* getelementptr inbounds ([3 x i8], [3 x i8]* @.str.1, i64 0, i64 0), i32 %48)
  ret void
}

declare dso_local i32 @__isoc99_scanf(i8*, ...) #1

; Function Attrs: nounwind readonly
declare dso_local i64 @strlen(i8*) #2

declare dso_local i32 @printf(i8*, ...) #1


!llvm.module.flags = !{!0}
!llvm.ident = !{!1}

!0 = !{i32 1, !"wchar_size", i32 4}
!1 = !{!"clang version 10.0.0-4ubuntu1 "}
