; ModuleID = 'source-C-CXX/44/252.c'
source_filename = "source-C-CXX/44/252.c"
target datalayout = "e-m:e-p270:32:32-p271:32:32-p272:64:64-i64:64-f80:128-n8:16:32:64-S128"
target triple = "x86_64-pc-linux-gnu"

@.str = private unnamed_addr constant [5 x i8] c"%s%s\00", align 1
@.str.1 = private unnamed_addr constant [3 x i8] c"%d\00", align 1

; Function Attrs: nofree nounwind sspstrong uwtable
define dso_local void @main() local_unnamed_addr #0 {
  %1 = alloca [50 x i8], align 16
  %2 = alloca [50 x i8], align 16
  %3 = getelementptr inbounds [50 x i8], [50 x i8]* %1, i64 0, i64 0
  call void @llvm.lifetime.start.p0i8(i64 50, i8* nonnull %3) #4
  %4 = getelementptr inbounds [50 x i8], [50 x i8]* %2, i64 0, i64 0
  call void @llvm.lifetime.start.p0i8(i64 50, i8* nonnull %4) #4
  %5 = call i32 (i8*, ...) @__isoc99_scanf(i8* getelementptr inbounds ([5 x i8], [5 x i8]* @.str, i64 0, i64 0), i8* nonnull %3, i8* nonnull %4)
  %6 = call i64 @strlen(i8* noundef nonnull %3) #5
  %7 = trunc i64 %6 to i32
  br label %8

8:                                                ; preds = %43, %0
  %9 = phi i64 [ 0, %0 ], [ %44, %43 ]
  %10 = phi i32 [ 0, %0 ], [ %31, %43 ]
  %11 = getelementptr inbounds [50 x i8], [50 x i8]* %2, i64 0, i64 %9
  %12 = load i8, i8* %11, align 2, !tbaa !5
  %13 = zext i32 %10 to i64
  %14 = getelementptr inbounds [50 x i8], [50 x i8]* %1, i64 0, i64 %13
  %15 = load i8, i8* %14, align 1, !tbaa !5
  %16 = icmp eq i8 %12, %15
  %17 = zext i1 %16 to i32
  %18 = add nuw nsw i32 %10, %17
  %19 = icmp sge i32 %18, %7
  %20 = icmp ne i32 %18, 0
  %21 = and i1 %19, %20
  br i1 %21, label %35, label %22

22:                                               ; preds = %8
  %23 = or i64 %9, 1
  %24 = getelementptr inbounds [50 x i8], [50 x i8]* %2, i64 0, i64 %23
  %25 = load i8, i8* %24, align 1, !tbaa !5
  %26 = zext i32 %18 to i64
  %27 = getelementptr inbounds [50 x i8], [50 x i8]* %1, i64 0, i64 %26
  %28 = load i8, i8* %27, align 1, !tbaa !5
  %29 = icmp eq i8 %25, %28
  %30 = zext i1 %29 to i32
  %31 = add nuw nsw i32 %18, %30
  %32 = icmp sge i32 %31, %7
  %33 = icmp ne i32 %31, 0
  %34 = and i1 %32, %33
  br i1 %34, label %35, label %43

35:                                               ; preds = %22, %8
  %36 = phi i64 [ %9, %8 ], [ %23, %22 ]
  %37 = trunc i64 %36 to i32
  %38 = add i32 %37, 1
  br label %39

39:                                               ; preds = %43, %35
  %40 = phi i32 [ %38, %35 ], [ 51, %43 ]
  %41 = sub i32 %40, %7
  %42 = call i32 (i8*, ...) @printf(i8* nonnull dereferenceable(1) getelementptr inbounds ([3 x i8], [3 x i8]* @.str.1, i64 0, i64 0), i32 %41)
  call void @llvm.lifetime.end.p0i8(i64 50, i8* nonnull %4) #4
  call void @llvm.lifetime.end.p0i8(i64 50, i8* nonnull %3) #4
  ret void

43:                                               ; preds = %22
  %44 = add nuw nsw i64 %9, 2
  %45 = icmp eq i64 %44, 50
  br i1 %45, label %39, label %8, !llvm.loop !8
}

; Function Attrs: argmemonly mustprogress nofree nosync nounwind willreturn
declare void @llvm.lifetime.start.p0i8(i64 immarg, i8* nocapture) #1

; Function Attrs: nofree nounwind
declare noundef i32 @__isoc99_scanf(i8* nocapture noundef readonly, ...) local_unnamed_addr #2

; Function Attrs: argmemonly mustprogress nofree nounwind readonly willreturn
declare i64 @strlen(i8* nocapture) local_unnamed_addr #3

; Function Attrs: nofree nounwind
declare noundef i32 @printf(i8* nocapture noundef readonly, ...) local_unnamed_addr #2

; Function Attrs: argmemonly mustprogress nofree nosync nounwind willreturn
declare void @llvm.lifetime.end.p0i8(i64 immarg, i8* nocapture) #1


!llvm.module.flags = !{!0, !1, !2, !3}
!llvm.ident = !{!4}

!0 = !{i32 1, !"wchar_size", i32 4}
!1 = !{i32 7, !"PIC Level", i32 2}
!2 = !{i32 7, !"PIE Level", i32 2}
!3 = !{i32 7, !"uwtable", i32 1}
!4 = !{!"clang version 13.0.0"}
!5 = !{!6, !6, i64 0}
!6 = !{!"omnipotent char", !7, i64 0}
!7 = !{!"Simple C/C++ TBAA"}
!8 = distinct !{!8, !9}
!9 = !{!"llvm.loop.mustprogress"}
